target datalayout = "e-m:e-p270:32:32-p271:32:32-p272:64:64-i64:64-i128:128-f80:128-n8:16:32:64-S128"
target triple = "x86_64-pc-linux-gnu"

; Function Attrs: mustprogress nounwind uwtable
define void @swapFileSepChar(ptr noundef %0, i8 noundef signext %1, i8 noundef signext %2) #0 {
  %4 = alloca ptr, align 8
  %5 = alloca i8, align 1
  %6 = alloca i8, align 1
  %7 = alloca i32, align 4
  %8 = alloca i32, align 4
  store ptr %0, ptr %4, align 8, !tbaa !17
  store i8 %1, ptr %5, align 1, !tbaa !23
  store i8 %2, ptr %6, align 1, !tbaa !23
  call void @llvm.lifetime.start.p0(i64 4, ptr %7) #12
  store i32 0, ptr %7, align 4, !tbaa !14
  call void @llvm.lifetime.start.p0(i64 4, ptr %8) #12
  %9 = load ptr, ptr %4, align 8, !tbaa !17
  %10 = call i64 @strlen(ptr noundef %9) #15
  %11 = trunc i64 %10 to i32
  store i32 %11, ptr %8, align 4, !tbaa !14
  br label %12

12:                                               ; preds = %41, %3
  %13 = load i32, ptr %7, align 4, !tbaa !14
  %14 = load i32, ptr %8, align 4, !tbaa !14
  %15 = icmp slt i32 %13, %14
  br i1 %15, label %17, label %16

16:                                               ; preds = %12
  call void @llvm.lifetime.end.p0(i64 4, ptr %8) #12
  call void @llvm.lifetime.end.p0(i64 4, ptr %7) #12
  br label %44

17:                                               ; preds = %12
  %18 = load ptr, ptr %4, align 8, !tbaa !17
  %19 = load i32, ptr %7, align 4, !tbaa !14
  %20 = sext i32 %19 to i64
  %21 = getelementptr inbounds i8, ptr %18, i64 %20
  %22 = load i8, ptr %21, align 1, !tbaa !23
  %23 = sext i8 %22 to i32
  %24 = load i8, ptr %5, align 1, !tbaa !23
  %25 = sext i8 %24 to i32
  %26 = icmp eq i32 %23, %25
  br i1 %26, label %27, label %29

27:                                               ; preds = %17
  %28 = load i8, ptr %6, align 1, !tbaa !23
  br label %35

29:                                               ; preds = %17
  %30 = load ptr, ptr %4, align 8, !tbaa !17
  %31 = load i32, ptr %7, align 4, !tbaa !14
  %32 = sext i32 %31 to i64
  %33 = getelementptr inbounds i8, ptr %30, i64 %32
  %34 = load i8, ptr %33, align 1, !tbaa !23
  br label %35

35:                                               ; preds = %29, %27
  %36 = phi i8 [ %28, %27 ], [ %34, %29 ]
  %37 = load ptr, ptr %4, align 8, !tbaa !17
  %38 = load i32, ptr %7, align 4, !tbaa !14
  %39 = sext i32 %38 to i64
  %40 = getelementptr inbounds i8, ptr %37, i64 %39
  store i8 %36, ptr %40, align 1, !tbaa !23
  br label %41

41:                                               ; preds = %35
  %42 = load i32, ptr %7, align 4, !tbaa !14
  %43 = add nsw i32 %42, 1
  store i32 %43, ptr %7, align 4, !tbaa !14
  br label %12, !llvm.loop !41

44:                                               ; preds = %16
  ret void
}