; Function Attrs: mustprogress nofree nounwind memory(argmem: readwrite) uwtable
define void @swapFileSepChar(ptr noundef captures(none) %0, i8 noundef signext %1, i8 noundef signext %2) local_unnamed_addr #11 {
  %4 = tail call i64 @strlen(ptr noundef nonnull dereferenceable(1) %0) #20
  %5 = trunc i64 %4 to i32
  %6 = icmp sgt i32 %5, 0
  br i1 %6, label %.lr.ph.preheader, label %._crit_edge

.lr.ph.preheader:                                 ; preds = %3
  %wide.trip.count = and i64 %4, 2147483647
  br label %.lr.ph

._crit_edge:                                      ; preds = %.lr.ph, %3
  ret void

.lr.ph:                                           ; preds = %.lr.ph.preheader, %.lr.ph
  %indvars.iv = phi i64 [ 0, %.lr.ph.preheader ], [ %indvars.iv.next, %.lr.ph ]
  %7 = getelementptr inbounds nuw i8, ptr %0, i64 %indvars.iv
  %8 = load i8, ptr %7, align 1, !tbaa !17
  %9 = icmp eq i8 %8, %1
  %. = select i1 %9, i8 %2, i8 %8
  store i8 %., ptr %7, align 1, !tbaa !17
  %indvars.iv.next = add nuw nsw i64 %indvars.iv, 1
  %exitcond.not = icmp eq i64 %indvars.iv.next, %wide.trip.count
  br i1 %exitcond.not, label %._crit_edge, label %.lr.ph, !llvm.loop !26
}